; Function Attrs: mustprogress uwtable
define internal fastcc noundef zeroext i1 @_ZN12_GLOBAL__N_119needToQuoteTestNameERK10cmMakefileRKNSt7__cxx1112basic_stringIcSt11char_traitsIcESaIcEEE(ptr noundef nonnull align 8 dereferenceable(3520) %0, ptr noundef nonnull align 8 dereferenceable(32) %1) unnamed_addr #3 personality ptr @__gxx_personality_v0 {
  %3 = alloca [4 x %"struct.std::pair.441"], align 8
  %4 = alloca %"class.std::__cxx11::basic_string", align 8
  %5 = alloca %"class.std::__cxx11::basic_string", align 8
  %6 = tail call noundef i32 @_ZNK10cmMakefile15GetPolicyStatusEN10cmPolicies8PolicyIDEb(ptr noundef nonnull align 8 dereferenceable(3520) %0, i32 noundef 110, i1 noundef zeroext false)
  switch i32 %6, label %30 [
    i32 1, label %7
    i32 0, label %31
  ]

7:                                                ; preds = %2
  %8 = tail call noundef i64 @_ZNKSt7__cxx1112basic_stringIcSt11char_traitsIcESaIcEE13find_first_ofEPKcm(ptr noundef nonnull align 8 dereferenceable(32) %1, ptr noundef nonnull @.str.22, i64 noundef 0) #17
  %.not = icmp eq i64 %8, -1
  br i1 %.not, label %31, label %9

9:                                                ; preds = %7
  call void @_ZN10cmPolicies16GetPolicyWarningB5cxx11ENS_8PolicyIDE(ptr dead_on_unwind nonnull writable sret(%"class.std::__cxx11::basic_string") align 8 %5, i32 noundef 110)
  call void @llvm.lifetime.start.p0(i64 96, ptr nonnull %3)
  call void @llvm.experimental.noalias.scope.decl(metadata !12)
  %10 = call { i64, ptr } @_ZNKSt7__cxx1112basic_stringIcSt11char_traitsIcESaIcEEcvSt17basic_string_viewIcS2_EEv(ptr noundef nonnull align 8 dereferenceable(32) %5) #17, !noalias !15
  %11 = extractvalue { i64, ptr } %10, 0
  %12 = extractvalue { i64, ptr } %10, 1
  store i64 %11, ptr %3, align 8, !alias.scope !12, !noalias !18
  %.sroa.2.0..sroa_idx.i.i = getelementptr inbounds i8, ptr %3, i64 8
  store ptr %12, ptr %.sroa.2.0..sroa_idx.i.i, align 8, !alias.scope !12, !noalias !18
  %13 = getelementptr inbounds i8, ptr %3, i64 16
  store ptr %5, ptr %13, align 8, !alias.scope !12, !noalias !18
  %14 = getelementptr inbounds i8, ptr %3, i64 24
  store i64 91, ptr %14, align 8, !alias.scope !19, !noalias !18
  %.sroa.2.0..sroa_idx.i8.i = getelementptr inbounds i8, ptr %3, i64 32
  store ptr @.str.23, ptr %.sroa.2.0..sroa_idx.i8.i, align 8, !alias.scope !19, !noalias !18
  %15 = getelementptr inbounds i8, ptr %3, i64 40
  store ptr null, ptr %15, align 8, !alias.scope !19, !noalias !18
  %16 = getelementptr inbounds i8, ptr %3, i64 48
  %17 = call { i64, ptr } @_ZNKSt7__cxx1112basic_stringIcSt11char_traitsIcESaIcEEcvSt17basic_string_viewIcS2_EEv(ptr noundef nonnull align 8 dereferenceable(32) %1) #17, !noalias !18
  %18 = extractvalue { i64, ptr } %17, 0
  %19 = extractvalue { i64, ptr } %17, 1
  store i64 %18, ptr %16, align 8, !alias.scope !22, !noalias !18
  %.sroa.2.0..sroa_idx.i17.i = getelementptr inbounds i8, ptr %3, i64 56
  store ptr %19, ptr %.sroa.2.0..sroa_idx.i17.i, align 8, !alias.scope !22, !noalias !18
  %20 = getelementptr inbounds i8, ptr %3, i64 64
  store ptr null, ptr %20, align 8, !alias.scope !22, !noalias !18
  %21 = getelementptr inbounds i8, ptr %3, i64 72
  store i64 3, ptr %21, align 8, !alias.scope !25, !noalias !18
  %.sroa.2.0..sroa_idx.i26.i = getelementptr inbounds i8, ptr %3, i64 80
  store ptr @.str.24, ptr %.sroa.2.0..sroa_idx.i26.i, align 8, !alias.scope !25, !noalias !18
  %22 = getelementptr inbounds i8, ptr %3, i64 88
  store ptr null, ptr %22, align 8, !alias.scope !25, !noalias !18
  invoke void @_Z10cmCatViewsSt16initializer_listISt4pairISt17basic_string_viewIcSt11char_traitsIcEEPNSt7__cxx1112basic_stringIcS3_SaIcEEEEE(ptr dead_on_unwind nonnull writable sret(%"class.std::__cxx11::basic_string") align 8 %4, ptr nonnull %3, i64 4)
          to label %23 unwind label %25

23:                                               ; preds = %9
  call void @llvm.lifetime.end.p0(i64 96, ptr nonnull %3)
  invoke void @_ZNK10cmMakefile12IssueMessageE11MessageTypeRKNSt7__cxx1112basic_stringIcSt11char_traitsIcESaIcEEE(ptr noundef nonnull align 8 dereferenceable(3520) %0, i32 noundef 0, ptr noundef nonnull align 8 dereferenceable(32) %4)
          to label %24 unwind label %27

24:                                               ; preds = %23
  call void @_ZNSt7__cxx1112basic_stringIcSt11char_traitsIcESaIcEED1Ev(ptr noundef nonnull align 8 dereferenceable(32) %4) #17
  call void @_ZNSt7__cxx1112basic_stringIcSt11char_traitsIcESaIcEED1Ev(ptr noundef nonnull align 8 dereferenceable(32) %5) #17
  br label %31

25:                                               ; preds = %9
  %26 = landingpad { ptr, i32 }
          cleanup
  br label %29

27:                                               ; preds = %23
  %28 = landingpad { ptr, i32 }
          cleanup
  call void @_ZNSt7__cxx1112basic_stringIcSt11char_traitsIcESaIcEED1Ev(ptr noundef nonnull align 8 dereferenceable(32) %4) #17
  br label %29

29:                                               ; preds = %27, %25
  %.pn = phi { ptr, i32 } [ %28, %27 ], [ %26, %25 ]
  call void @_ZNSt7__cxx1112basic_stringIcSt11char_traitsIcESaIcEED1Ev(ptr noundef nonnull align 8 dereferenceable(32) %5) #17
  resume { ptr, i32 } %.pn

30:                                               ; preds = %2
  br label %31

31:                                               ; preds = %2, %24, %7, %30
  %.07 = phi i1 [ true, %30 ], [ false, %7 ], [ false, %24 ], [ false, %2 ]
  ret i1 %.07
}